target datalayout = "e-m:e-p270:32:32-p271:32:32-p272:64:64-i64:64-i128:128-f80:128-n8:16:32:64-S128"
target triple = "x86_64-unknown-linux-gnu"

%"struct.icu_75::CollationSettings" = type <{ %"class.icu_75::SharedObject", i32, i32, ptr, i32, [4 x i8], ptr, i32, [4 x i8], ptr, i32, i32, i32, [384 x i16], [4 x i8] }>
%"class.icu_75::SharedObject" = type { %"class.icu_75::UObject", i32, %"struct.std::atomic", ptr }
%"class.icu_75::UObject" = type { ptr }
%"struct.std::atomic" = type { %"struct.std::__atomic_base" }
%"struct.std::__atomic_base" = type { i32 }

; Function Attrs: mustprogress nounwind uwtable
define noundef signext i8 @_ZN6icu_7517CollationSettings25reorderTableHasSplitBytesEPKh(ptr noundef %table) #1 align 2 {
entry:
  %retval = alloca i8, align 1
  %table.addr = alloca ptr, align 8
  %i = alloca i32, align 4
  store ptr %table, ptr %table.addr, align 8
  store i32 1, ptr %i, align 4
  br label %for.cond

for.cond:                                         ; preds = %for.inc, %entry
  %0 = load i32, ptr %i, align 4
  %cmp = icmp slt i32 %0, 256
  br i1 %cmp, label %for.body, label %for.end

for.body:                                         ; preds = %for.cond
  %1 = load ptr, ptr %table.addr, align 8
  %2 = load i32, ptr %i, align 4
  %idxprom = sext i32 %2 to i64
  %arrayidx = getelementptr inbounds i8, ptr %1, i64 %idxprom
  %3 = load i8, ptr %arrayidx, align 1
  %conv = zext i8 %3 to i32
  %cmp1 = icmp eq i32 %conv, 0
  br i1 %cmp1, label %if.then, label %if.end

if.then:                                          ; preds = %for.body
  store i8 1, ptr %retval, align 1
  br label %return

if.end:                                           ; preds = %for.body
  br label %for.inc

for.inc:                                          ; preds = %if.end
  %4 = load i32, ptr %i, align 4
  %inc = add nsw i32 %4, 1
  store i32 %inc, ptr %i, align 4
  br label %for.cond, !llvm.loop !8

for.end:                                          ; preds = %for.cond
  store i8 0, ptr %retval, align 1
  br label %return

return:                                           ; preds = %for.end, %if.then
  %5 = load i8, ptr %retval, align 1
  ret i8 %5
}

; Function Attrs: mustprogress nounwind uwtable
define internal noundef signext i8 @_ZL9U_FAILURE10UErrorCode(i32 noundef %code) #1 {
entry:
  %code.addr = alloca i32, align 4
  store i32 %code, ptr %code.addr, align 4
  %0 = load i32, ptr %code.addr, align 4
  %cmp = icmp sgt i32 %0, 0
  %conv = zext i1 %cmp to i8
  ret i8 %conv
}

; Function Attrs: mustprogress uwtable
define void @_ZN6icu_7517CollationSettings15aliasReorderingERKNS_13CollationDataEPKiiPKjiPKhR10UErrorCode(ptr noundef nonnull align 8 dereferenceable(852) %this, ptr noundef nonnull align 8 dereferenceable(140) %data, ptr noundef %codes, i32 noundef %length, ptr noundef %ranges, i32 noundef %rangesLength, ptr noundef %table, ptr noundef nonnull align 4 dereferenceable(4) %errorCode) #0 align 2 {
entry:
  %this.addr = alloca ptr, align 8
  %data.addr = alloca ptr, align 8
  %codes.addr = alloca ptr, align 8
  %length.addr = alloca i32, align 4
  %ranges.addr = alloca ptr, align 8
  %rangesLength.addr = alloca i32, align 4
  %table.addr = alloca ptr, align 8
  %errorCode.addr = alloca ptr, align 8
  %firstSplitByteRangeIndex = alloca i32, align 4
  store ptr %this, ptr %this.addr, align 8
  store ptr %data, ptr %data.addr, align 8
  store ptr %codes, ptr %codes.addr, align 8
  store i32 %length, ptr %length.addr, align 4
  store ptr %ranges, ptr %ranges.addr, align 8
  store i32 %rangesLength, ptr %rangesLength.addr, align 4
  store ptr %table, ptr %table.addr, align 8
  store ptr %errorCode, ptr %errorCode.addr, align 8
  %this1 = load ptr, ptr %this.addr, align 8
  %0 = load ptr, ptr %errorCode.addr, align 8
  %1 = load i32, ptr %0, align 4
  %call = call noundef signext i8 @_ZL9U_FAILURE10UErrorCode(i32 noundef %1)
  %tobool = icmp ne i8 %call, 0
  br i1 %tobool, label %if.then, label %if.end

if.then:                                          ; preds = %entry
  br label %return

if.end:                                           ; preds = %entry
  %2 = load ptr, ptr %table.addr, align 8
  %cmp = icmp ne ptr %2, null
  br i1 %cmp, label %land.lhs.true, label %if.end34

land.lhs.true:                                    ; preds = %if.end
  %3 = load i32, ptr %rangesLength.addr, align 4
  %cmp2 = icmp eq i32 %3, 0
  br i1 %cmp2, label %cond.true, label %cond.false

cond.true:                                        ; preds = %land.lhs.true
  %4 = load ptr, ptr %table.addr, align 8
  %call3 = call noundef signext i8 @_ZN6icu_7517CollationSettings25reorderTableHasSplitBytesEPKh(ptr noundef %4)
  %tobool4 = icmp ne i8 %call3, 0
  br i1 %tobool4, label %if.end34, label %if.then12

cond.false:                                       ; preds = %land.lhs.true
  %5 = load i32, ptr %rangesLength.addr, align 4
  %cmp5 = icmp sge i32 %5, 2
  br i1 %cmp5, label %land.lhs.true6, label %if.end34

land.lhs.true6:                                   ; preds = %cond.false
  %6 = load ptr, ptr %ranges.addr, align 8
  %arrayidx = getelementptr inbounds i32, ptr %6, i64 0
  %7 = load i32, ptr %arrayidx, align 4
  %and = and i32 %7, 65535
  %cmp7 = icmp eq i32 %and, 0
  br i1 %cmp7, label %land.lhs.true8, label %if.end34

land.lhs.true8:                                   ; preds = %land.lhs.true6
  %8 = load ptr, ptr %ranges.addr, align 8
  %9 = load i32, ptr %rangesLength.addr, align 4
  %sub = sub nsw i32 %9, 1
  %idxprom = sext i32 %sub to i64
  %arrayidx9 = getelementptr inbounds i32, ptr %8, i64 %idxprom
  %10 = load i32, ptr %arrayidx9, align 4
  %and10 = and i32 %10, 65535
  %cmp11 = icmp ne i32 %and10, 0
  br i1 %cmp11, label %if.then12, label %if.end34

if.then12:                                        ; preds = %land.lhs.true8, %cond.true
  %reorderCodesCapacity = getelementptr inbounds %"struct.icu_75::CollationSettings", ptr %this1, i32 0, i32 11
  %11 = load i32, ptr %reorderCodesCapacity, align 4
  %cmp13 = icmp ne i32 %11, 0
  br i1 %cmp13, label %if.then14, label %if.end16

if.then14:                                        ; preds = %if.then12
  %reorderCodes = getelementptr inbounds %"struct.icu_75::CollationSettings", ptr %this1, i32 0, i32 9
  %12 = load ptr, ptr %reorderCodes, align 8
  call void @uprv_free_75(ptr noundef %12)
  %reorderCodesCapacity15 = getelementptr inbounds %"struct.icu_75::CollationSettings", ptr %this1, i32 0, i32 11
  store i32 0, ptr %reorderCodesCapacity15, align 4
  br label %if.end16

if.end16:                                         ; preds = %if.then14, %if.then12
  %13 = load ptr, ptr %table.addr, align 8
  %reorderTable = getelementptr inbounds %"struct.icu_75::CollationSettings", ptr %this1, i32 0, i32 3
  store ptr %13, ptr %reorderTable, align 8
  %14 = load ptr, ptr %codes.addr, align 8
  %reorderCodes17 = getelementptr inbounds %"struct.icu_75::CollationSettings", ptr %this1, i32 0, i32 9
  store ptr %14, ptr %reorderCodes17, align 8
  %15 = load i32, ptr %length.addr, align 4
  %reorderCodesLength = getelementptr inbounds %"struct.icu_75::CollationSettings", ptr %this1, i32 0, i32 10
  store i32 %15, ptr %reorderCodesLength, align 8
  store i32 0, ptr %firstSplitByteRangeIndex, align 4
  br label %while.cond

while.cond:                                       ; preds = %while.body, %if.end16
  %16 = load i32, ptr %firstSplitByteRangeIndex, align 4
  %17 = load i32, ptr %rangesLength.addr, align 4
  %cmp18 = icmp slt i32 %16, %17
  br i1 %cmp18, label %land.rhs, label %land.end

land.rhs:                                         ; preds = %while.cond
  %18 = load ptr, ptr %ranges.addr, align 8
  %19 = load i32, ptr %firstSplitByteRangeIndex, align 4
  %idxprom19 = sext i32 %19 to i64
  %arrayidx20 = getelementptr inbounds i32, ptr %18, i64 %idxprom19
  %20 = load i32, ptr %arrayidx20, align 4
  %and21 = and i32 %20, 16711680
  %cmp22 = icmp eq i32 %and21, 0
  br label %land.end

land.end:                                         ; preds = %land.rhs, %while.cond
  %21 = phi i1 [ false, %while.cond ], [ %cmp22, %land.rhs ]
  br i1 %21, label %while.body, label %while.end

while.body:                                       ; preds = %land.end
  %22 = load i32, ptr %firstSplitByteRangeIndex, align 4
  %inc = add nsw i32 %22, 1
  store i32 %inc, ptr %firstSplitByteRangeIndex, align 4
  br label %while.cond, !llvm.loop !7

while.end:                                        ; preds = %land.end
  %23 = load i32, ptr %firstSplitByteRangeIndex, align 4
  %24 = load i32, ptr %rangesLength.addr, align 4
  %cmp23 = icmp eq i32 %23, %24
  br i1 %cmp23, label %if.then24, label %if.else

if.then24:                                        ; preds = %while.end
  %minHighNoReorder = getelementptr inbounds %"struct.icu_75::CollationSettings", ptr %this1, i32 0, i32 4
  store i32 0, ptr %minHighNoReorder, align 8
  %reorderRanges = getelementptr inbounds %"struct.icu_75::CollationSettings", ptr %this1, i32 0, i32 6
  store ptr null, ptr %reorderRanges, align 8
  %reorderRangesLength = getelementptr inbounds %"struct.icu_75::CollationSettings", ptr %this1, i32 0, i32 7
  store i32 0, ptr %reorderRangesLength, align 8
  br label %if.end33

if.else:                                          ; preds = %while.end
  %25 = load ptr, ptr %ranges.addr, align 8
  %26 = load i32, ptr %rangesLength.addr, align 4
  %sub25 = sub nsw i32 %26, 1
  %idxprom26 = sext i32 %sub25 to i64
  %arrayidx27 = getelementptr inbounds i32, ptr %25, i64 %idxprom26
  %27 = load i32, ptr %arrayidx27, align 4
  %and28 = and i32 %27, -65536
  %minHighNoReorder29 = getelementptr inbounds %"struct.icu_75::CollationSettings", ptr %this1, i32 0, i32 4
  store i32 %and28, ptr %minHighNoReorder29, align 8
  %28 = load ptr, ptr %ranges.addr, align 8
  %29 = load i32, ptr %firstSplitByteRangeIndex, align 4
  %idx.ext = sext i32 %29 to i64
  %add.ptr = getelementptr inbounds i32, ptr %28, i64 %idx.ext
  %reorderRanges30 = getelementptr inbounds %"struct.icu_75::CollationSettings", ptr %this1, i32 0, i32 6
  store ptr %add.ptr, ptr %reorderRanges30, align 8
  %30 = load i32, ptr %rangesLength.addr, align 4
  %31 = load i32, ptr %firstSplitByteRangeIndex, align 4
  %sub31 = sub nsw i32 %30, %31
  %reorderRangesLength32 = getelementptr inbounds %"struct.icu_75::CollationSettings", ptr %this1, i32 0, i32 7
  store i32 %sub31, ptr %reorderRangesLength32, align 8
  br label %if.end33

if.end33:                                         ; preds = %if.else, %if.then24
  br label %return

if.end34:                                         ; preds = %land.lhs.true8, %land.lhs.true6, %cond.false, %cond.true, %if.end
  %32 = load ptr, ptr %data.addr, align 8
  %33 = load ptr, ptr %codes.addr, align 8
  %34 = load i32, ptr %length.addr, align 4
  %35 = load ptr, ptr %errorCode.addr, align 8
  call void @_ZN6icu_7517CollationSettings13setReorderingERKNS_13CollationDataEPKiiR10UErrorCode(ptr noundef nonnull align 8 dereferenceable(852) %this1, ptr noundef nonnull align 8 dereferenceable(140) %32, ptr noundef %33, i32 noundef %34, ptr noundef nonnull align 4 dereferenceable(4) %35)
  br label %return

return:                                           ; preds = %if.end34, %if.end33, %if.then
  ret void
}