; Function Attrs: mustprogress uwtable
define void @_ZN6icu_7517CollationSettings15aliasReorderingERKNS_13CollationDataEPKiiPKjiPKhR10UErrorCode(ptr nocapture noundef nonnull align 8 dereferenceable(852) %this, ptr noundef nonnull align 8 dereferenceable(140) %data, ptr noundef %codes, i32 noundef %length, ptr noundef %ranges, i32 noundef %rangesLength, ptr noundef %table, ptr noundef nonnull align 4 dereferenceable(4) %errorCode) local_unnamed_addr #0 align 2 {
entry:
  %0 = load i32, ptr %errorCode, align 4
  %cmp.i = icmp slt i32 %0, 1
  br i1 %cmp.i, label %if.end, label %return

if.end:                                           ; preds = %entry
  %cmp.not = icmp eq ptr %table, null
  br i1 %cmp.not, label %if.end34, label %land.lhs.true

land.lhs.true:                                    ; preds = %if.end
  %cmp2 = icmp eq i32 %rangesLength, 0
  br i1 %cmp2, label %for.body.i, label %cond.false

for.cond.i:                                       ; preds = %for.body.i
  %indvars.iv.next.i = add nuw nsw i64 %indvars.iv.i, 1
  %exitcond.not.i = icmp eq i64 %indvars.iv.next.i, 256
  br i1 %exitcond.not.i, label %if.then12, label %for.body.i, !llvm.loop !7

for.body.i:                                       ; preds = %land.lhs.true, %for.cond.i
  %indvars.iv.i = phi i64 [ %indvars.iv.next.i, %for.cond.i ], [ 1, %land.lhs.true ]
  %arrayidx.i = getelementptr inbounds i8, ptr %table, i64 %indvars.iv.i
  %1 = load i8, ptr %arrayidx.i, align 1
  %cmp1.i = icmp eq i8 %1, 0
  br i1 %cmp1.i, label %if.end34, label %for.cond.i

cond.false:                                       ; preds = %land.lhs.true
  %cmp5 = icmp sgt i32 %rangesLength, 1
  br i1 %cmp5, label %land.lhs.true6, label %if.end34

land.lhs.true6:                                   ; preds = %cond.false
  %2 = load i32, ptr %ranges, align 4
  %and = and i32 %2, 65535
  %cmp7 = icmp eq i32 %and, 0
  br i1 %cmp7, label %land.lhs.true8, label %if.end34

land.lhs.true8:                                   ; preds = %land.lhs.true6
  %3 = zext nneg i32 %rangesLength to i64
  %4 = getelementptr i32, ptr %ranges, i64 %3
  %arrayidx9 = getelementptr i8, ptr %4, i64 -4
  %5 = load i32, ptr %arrayidx9, align 4
  %and10 = and i32 %5, 65535
  %cmp11.not = icmp eq i32 %and10, 0
  br i1 %cmp11.not, label %if.end34, label %if.then12

if.then12:                                        ; preds = %for.cond.i, %land.lhs.true8
  %reorderCodesCapacity = getelementptr inbounds i8, ptr %this, i64 76
  %6 = load i32, ptr %reorderCodesCapacity, align 4
  %cmp13.not = icmp eq i32 %6, 0
  br i1 %cmp13.not, label %if.end16, label %if.then14

if.then14:                                        ; preds = %if.then12
  %reorderCodes = getelementptr inbounds i8, ptr %this, i64 64
  %7 = load ptr, ptr %reorderCodes, align 8
  tail call void @uprv_free_75(ptr noundef %7)
  store i32 0, ptr %reorderCodesCapacity, align 4
  br label %if.end16

if.end16:                                         ; preds = %if.then14, %if.then12
  %reorderTable = getelementptr inbounds i8, ptr %this, i64 32
  store ptr %table, ptr %reorderTable, align 8
  %reorderCodes17 = getelementptr inbounds i8, ptr %this, i64 64
  store ptr %codes, ptr %reorderCodes17, align 8
  %reorderCodesLength = getelementptr inbounds i8, ptr %this, i64 72
  store i32 %length, ptr %reorderCodesLength, align 8
  %cmp1823 = icmp sgt i32 %rangesLength, 0
  br i1 %cmp1823, label %land.rhs.preheader, label %while.end

land.rhs.preheader:                               ; preds = %if.end16
  %wide.trip.count = zext nneg i32 %rangesLength to i64
  br label %land.rhs

land.rhs:                                         ; preds = %land.rhs.preheader, %while.body
  %indvars.iv = phi i64 [ 0, %land.rhs.preheader ], [ %indvars.iv.next, %while.body ]
  %arrayidx20 = getelementptr inbounds i32, ptr %ranges, i64 %indvars.iv
  %8 = load i32, ptr %arrayidx20, align 4
  %and21 = and i32 %8, 16711680
  %cmp22 = icmp eq i32 %and21, 0
  br i1 %cmp22, label %while.body, label %while.end.loopexit

while.body:                                       ; preds = %land.rhs
  %indvars.iv.next = add nuw nsw i64 %indvars.iv, 1
  %exitcond.not = icmp eq i64 %indvars.iv.next, %wide.trip.count
  br i1 %exitcond.not, label %if.then24, label %land.rhs, !llvm.loop !8

while.end.loopexit:                               ; preds = %land.rhs
  %9 = trunc i64 %indvars.iv to i32
  br label %while.end

while.end:                                        ; preds = %while.end.loopexit, %if.end16
  %firstSplitByteRangeIndex.0.lcssa = phi i32 [ 0, %if.end16 ], [ %9, %while.end.loopexit ]
  %cmp23 = icmp eq i32 %firstSplitByteRangeIndex.0.lcssa, %rangesLength
  br i1 %cmp23, label %if.then24, label %if.else

if.then24:                                        ; preds = %while.body, %while.end
  %minHighNoReorder = getelementptr inbounds i8, ptr %this, i64 40
  store i32 0, ptr %minHighNoReorder, align 8
  %reorderRanges = getelementptr inbounds i8, ptr %this, i64 48
  store ptr null, ptr %reorderRanges, align 8
  %reorderRangesLength = getelementptr inbounds i8, ptr %this, i64 56
  store i32 0, ptr %reorderRangesLength, align 8
  br label %return

if.else:                                          ; preds = %while.end
  %10 = sext i32 %rangesLength to i64
  %11 = getelementptr i32, ptr %ranges, i64 %10
  %arrayidx27 = getelementptr i8, ptr %11, i64 -4
  %12 = load i32, ptr %arrayidx27, align 4
  %and28 = and i32 %12, -65536
  %minHighNoReorder29 = getelementptr inbounds i8, ptr %this, i64 40
  store i32 %and28, ptr %minHighNoReorder29, align 8
  %idx.ext = zext nneg i32 %firstSplitByteRangeIndex.0.lcssa to i64
  %add.ptr = getelementptr inbounds i32, ptr %ranges, i64 %idx.ext
  %reorderRanges30 = getelementptr inbounds i8, ptr %this, i64 48
  store ptr %add.ptr, ptr %reorderRanges30, align 8
  %sub31 = sub nsw i32 %rangesLength, %firstSplitByteRangeIndex.0.lcssa
  %reorderRangesLength32 = getelementptr inbounds i8, ptr %this, i64 56
  store i32 %sub31, ptr %reorderRangesLength32, align 8
  br label %return

if.end34:                                         ; preds = %for.body.i, %land.lhs.true8, %land.lhs.true6, %cond.false, %if.end
  tail call void @_ZN6icu_7517CollationSettings13setReorderingERKNS_13CollationDataEPKiiR10UErrorCode(ptr noundef nonnull align 8 dereferenceable(852) %this, ptr noundef nonnull align 8 dereferenceable(140) %data, ptr noundef %codes, i32 noundef %length, ptr noundef nonnull align 4 dereferenceable(4) %errorCode)
  br label %return

return:                                           ; preds = %if.then24, %if.else, %entry, %if.end34
  ret void
}